#include <math.h>
#include <stdio.h>
#include <stdlib.h>
#include <string.h>

void main()
{
    int i,a,b[5]={0};
    scanf("%d",&a);
    for (i=0;i<5;i++)
    {
        b[i]=a%10;
        a=(int)a/10;
    }
    i=0;
    while (b[i]!=0)
    {
        printf("%d",b[i]);
        i++;
    }
}